; Function Attrs: nounwind uwtable
define ptr @l_Lean_RBNode_insert___at_Lean_NameMap_insert___spec__1___rarg(ptr noundef %0, ptr noundef %1, ptr noundef %2) #2 {
  %4 = tail call zeroext i8 @l_Lean_RBNode_isRed___rarg(ptr noundef %0) #6
  %5 = icmp eq i8 %4, 0
  br i1 %5, label %6, label %8

6:                                                ; preds = %3
  %7 = tail call ptr @l_Lean_RBNode_ins___at_Lean_NameMap_insert___spec__2___rarg(ptr noundef %0, ptr noundef %1, ptr noundef %2)
  br label %11

8:                                                ; preds = %3
  %9 = tail call ptr @l_Lean_RBNode_ins___at_Lean_NameMap_insert___spec__3___rarg(ptr noundef %0, ptr noundef %1, ptr noundef %2)
  %10 = tail call ptr @l_Lean_RBNode_setBlack___rarg(ptr noundef %9) #6
  br label %11

11:                                               ; preds = %8, %6
  %.0 = phi ptr [ %7, %6 ], [ %10, %8 ]
  ret ptr %.0
}